target datalayout = "e-m:e-p270:32:32-p271:32:32-p272:64:64-i64:64-i128:128-f80:128-n8:16:32:64-S128"
target triple = "x86_64-pc-linux-gnu"

%struct.ImVec2 = type { float, float }
%struct.ImGuiMultiSelectIO = type { %struct.ImVector.15, i64, i64, i8, i8, i32 }
%struct.ImVector.15 = type { i32, i32, ptr }
%struct.ExampleTreeNode = type { [28 x i8], i32, ptr, %struct.ImVector.21, i16, i8, i8, i32, %struct.ImVec2 }
%struct.ImVector.21 = type { i32, i32, ptr }
%struct.ImGuiSelectionRequest = type { i32, i8, i8, i64, i64 }

; Function Attrs: inlinehint mustprogress nounwind uwtable
define linkonce_odr dso_local noundef nonnull align 8 dereferenceable(8) ptr @_ZN8ImVectorIP15ExampleTreeNodeEixEi(ptr noundef nonnull align 8 dereferenceable(16) %0, i32 noundef %1) #6 comdat align 2 {
  %3 = alloca ptr, align 8
  %4 = alloca i32, align 4
  store ptr %0, ptr %3, align 8, !tbaa !424
  store i32 %1, ptr %4, align 4, !tbaa !33
  %5 = load ptr, ptr %3, align 8
  %6 = getelementptr inbounds nuw %struct.ImVector.21, ptr %5, i32 0, i32 2
  %7 = load ptr, ptr %6, align 8, !tbaa !491
  %8 = load i32, ptr %4, align 4, !tbaa !33
  %9 = sext i32 %8 to i64
  %10 = getelementptr inbounds ptr, ptr %7, i64 %9
  ret ptr %10
}

; Function Attrs: mustprogress uwtable
define internal noundef zeroext i1 @_ZZL25ShowDemoWindowMultiSelectP19ImGuiDemoWindowDataEN16ExampleTreeFuncs15TreeNodeGetOpenEP15ExampleTreeNode(ptr noundef %0) #0 align 2 {
  %2 = alloca ptr, align 8
  store ptr %0, ptr %2, align 8, !tbaa !423
  %3 = call noundef ptr @_ZN5ImGui15GetStateStorageEv()
  %4 = load ptr, ptr %2, align 8, !tbaa !423
  %5 = getelementptr inbounds nuw %struct.ExampleTreeNode, ptr %4, i32 0, i32 1
  %6 = load i32, ptr %5, align 4, !tbaa !489
  %7 = call noundef zeroext i1 @_ZNK12ImGuiStorage7GetBoolEjb(ptr noundef nonnull align 8 dereferenceable(16) %3, i32 noundef %6, i1 noundef zeroext false)
  ret i1 %7
}

; Function Attrs: mustprogress uwtable
define internal noundef ptr @_ZZL25ShowDemoWindowMultiSelectP19ImGuiDemoWindowDataEN16ExampleTreeFuncs29TreeGetNextNodeInVisibleOrderEP15ExampleTreeNodeS3_(ptr noundef %0, ptr noundef %1) #0 align 2 {
  %3 = alloca ptr, align 8
  %4 = alloca ptr, align 8
  %5 = alloca ptr, align 8
  store ptr %0, ptr %4, align 8, !tbaa !423
  store ptr %1, ptr %5, align 8, !tbaa !423
  %6 = load ptr, ptr %4, align 8, !tbaa !423
  %7 = load ptr, ptr %5, align 8, !tbaa !423
  %8 = icmp eq ptr %6, %7
  br i1 %8, label %9, label %10

9:                                                ; preds = %2
  store ptr null, ptr %3, align 8
  br label %60

10:                                               ; preds = %2
  %11 = load ptr, ptr %4, align 8, !tbaa !423
  %12 = getelementptr inbounds nuw %struct.ExampleTreeNode, ptr %11, i32 0, i32 3
  %13 = getelementptr inbounds nuw %struct.ImVector.21, ptr %12, i32 0, i32 0
  %14 = load i32, ptr %13, align 8, !tbaa !493
  %15 = icmp sgt i32 %14, 0
  br i1 %15, label %16, label %24

16:                                               ; preds = %10
  %17 = load ptr, ptr %4, align 8, !tbaa !423
  %18 = call noundef zeroext i1 @_ZZL25ShowDemoWindowMultiSelectP19ImGuiDemoWindowDataEN16ExampleTreeFuncs15TreeNodeGetOpenEP15ExampleTreeNode(ptr noundef %17)
  br i1 %18, label %19, label %24

19:                                               ; preds = %16
  %20 = load ptr, ptr %4, align 8, !tbaa !423
  %21 = getelementptr inbounds nuw %struct.ExampleTreeNode, ptr %20, i32 0, i32 3
  %22 = call noundef nonnull align 8 dereferenceable(8) ptr @_ZN8ImVectorIP15ExampleTreeNodeEixEi(ptr noundef nonnull align 8 dereferenceable(16) %21, i32 noundef 0)
  %23 = load ptr, ptr %22, align 8, !tbaa !423
  store ptr %23, ptr %3, align 8
  br label %60

24:                                               ; preds = %16, %10
  br label %25

25:                                               ; preds = %55, %24
  %26 = load ptr, ptr %4, align 8, !tbaa !423
  %27 = getelementptr inbounds nuw %struct.ExampleTreeNode, ptr %26, i32 0, i32 2
  %28 = load ptr, ptr %27, align 8, !tbaa !503
  %29 = icmp ne ptr %28, null
  br i1 %29, label %30, label %59

30:                                               ; preds = %25
  %31 = load ptr, ptr %4, align 8, !tbaa !423
  %32 = getelementptr inbounds nuw %struct.ExampleTreeNode, ptr %31, i32 0, i32 4
  %33 = load i16, ptr %32, align 8, !tbaa !504
  %34 = zext i16 %33 to i32
  %35 = add nsw i32 %34, 1
  %36 = load ptr, ptr %4, align 8, !tbaa !423
  %37 = getelementptr inbounds nuw %struct.ExampleTreeNode, ptr %36, i32 0, i32 2
  %38 = load ptr, ptr %37, align 8, !tbaa !503
  %39 = getelementptr inbounds nuw %struct.ExampleTreeNode, ptr %38, i32 0, i32 3
  %40 = getelementptr inbounds nuw %struct.ImVector.21, ptr %39, i32 0, i32 0
  %41 = load i32, ptr %40, align 8, !tbaa !493
  %42 = icmp slt i32 %35, %41
  br i1 %42, label %43, label %55

43:                                               ; preds = %30
  %44 = load ptr, ptr %4, align 8, !tbaa !423
  %45 = getelementptr inbounds nuw %struct.ExampleTreeNode, ptr %44, i32 0, i32 2
  %46 = load ptr, ptr %45, align 8, !tbaa !503
  %47 = getelementptr inbounds nuw %struct.ExampleTreeNode, ptr %46, i32 0, i32 3
  %48 = load ptr, ptr %4, align 8, !tbaa !423
  %49 = getelementptr inbounds nuw %struct.ExampleTreeNode, ptr %48, i32 0, i32 4
  %50 = load i16, ptr %49, align 8, !tbaa !504
  %51 = zext i16 %50 to i32
  %52 = add nsw i32 %51, 1
  %53 = call noundef nonnull align 8 dereferenceable(8) ptr @_ZN8ImVectorIP15ExampleTreeNodeEixEi(ptr noundef nonnull align 8 dereferenceable(16) %47, i32 noundef %52)
  %54 = load ptr, ptr %53, align 8, !tbaa !423
  store ptr %54, ptr %3, align 8
  br label %60

55:                                               ; preds = %30
  %56 = load ptr, ptr %4, align 8, !tbaa !423
  %57 = getelementptr inbounds nuw %struct.ExampleTreeNode, ptr %56, i32 0, i32 2
  %58 = load ptr, ptr %57, align 8, !tbaa !503
  store ptr %58, ptr %4, align 8, !tbaa !423
  br label %25, !llvm.loop !511

59:                                               ; preds = %25
  store ptr null, ptr %3, align 8
  br label %60

60:                                               ; preds = %59, %43, %19, %9
  %61 = load ptr, ptr %3, align 8
  ret ptr %61
}

; Function Attrs: inlinehint mustprogress nounwind uwtable
define linkonce_odr dso_local noundef ptr @_ZN8ImVectorI21ImGuiSelectionRequestE3endEv(ptr noundef nonnull align 8 dereferenceable(16) %0) #6 comdat align 2 {
  %2 = alloca ptr, align 8
  store ptr %0, ptr %2, align 8, !tbaa !480
  %3 = load ptr, ptr %2, align 8
  %4 = getelementptr inbounds nuw %struct.ImVector.15, ptr %3, i32 0, i32 2
  %5 = load ptr, ptr %4, align 8, !tbaa !509
  %6 = getelementptr inbounds nuw %struct.ImVector.15, ptr %3, i32 0, i32 0
  %7 = load i32, ptr %6, align 8, !tbaa !510
  %8 = sext i32 %7 to i64
  %9 = getelementptr inbounds %struct.ImGuiSelectionRequest, ptr %5, i64 %8
  ret ptr %9
}

; Function Attrs: inlinehint mustprogress nounwind uwtable
define linkonce_odr dso_local noundef ptr @_ZN8ImVectorI21ImGuiSelectionRequestE5beginEv(ptr noundef nonnull align 8 dereferenceable(16) %0) #6 comdat align 2 {
  %2 = alloca ptr, align 8
  store ptr %0, ptr %2, align 8, !tbaa !480
  %3 = load ptr, ptr %2, align 8
  %4 = getelementptr inbounds nuw %struct.ImVector.15, ptr %3, i32 0, i32 2
  %5 = load ptr, ptr %4, align 8, !tbaa !509
  ret ptr %5
}

; Function Attrs: mustprogress uwtable
define internal void @_ZZL25ShowDemoWindowMultiSelectP19ImGuiDemoWindowDataEN16ExampleTreeFuncs22ApplySelectionRequestsEP18ImGuiMultiSelectIOP15ExampleTreeNodeP26ImGuiSelectionBasicStorage(ptr noundef %0, ptr noundef %1, ptr noundef %2) #0 align 2 {
  %4 = alloca ptr, align 8
  %5 = alloca ptr, align 8
  %6 = alloca ptr, align 8
  %7 = alloca ptr, align 8
  %8 = alloca ptr, align 8
  %9 = alloca ptr, align 8
  %10 = alloca i32, align 4
  %11 = alloca ptr, align 8
  %12 = alloca ptr, align 8
  %13 = alloca ptr, align 8
  %14 = alloca ptr, align 8
  store ptr %0, ptr %4, align 8, !tbaa !395
  store ptr %1, ptr %5, align 8, !tbaa !423
  store ptr %2, ptr %6, align 8, !tbaa !419
  call void @llvm.lifetime.start.p0(i64 8, ptr %7) #7
  %15 = load ptr, ptr %4, align 8, !tbaa !395
  %16 = getelementptr inbounds nuw %struct.ImGuiMultiSelectIO, ptr %15, i32 0, i32 0
  store ptr %16, ptr %7, align 8, !tbaa !480
  call void @llvm.lifetime.start.p0(i64 8, ptr %8) #7
  %17 = load ptr, ptr %7, align 8, !tbaa !480
  %18 = call noundef ptr @_ZN8ImVectorI21ImGuiSelectionRequestE5beginEv(ptr noundef nonnull align 8 dereferenceable(16) %17)
  store ptr %18, ptr %8, align 8, !tbaa !482
  call void @llvm.lifetime.start.p0(i64 8, ptr %9) #7
  %19 = load ptr, ptr %7, align 8, !tbaa !480
  %20 = call noundef ptr @_ZN8ImVectorI21ImGuiSelectionRequestE3endEv(ptr noundef nonnull align 8 dereferenceable(16) %19)
  store ptr %20, ptr %9, align 8, !tbaa !482
  br label %21

21:                                               ; preds = %82, %3
  %22 = load ptr, ptr %8, align 8, !tbaa !482
  %23 = load ptr, ptr %9, align 8, !tbaa !482
  %24 = icmp ne ptr %22, %23
  br i1 %24, label %26, label %25

25:                                               ; preds = %21
  store i32 2, ptr %10, align 4
  call void @llvm.lifetime.end.p0(i64 8, ptr %9) #7
  call void @llvm.lifetime.end.p0(i64 8, ptr %8) #7
  call void @llvm.lifetime.end.p0(i64 8, ptr %7) #7
  br label %85

26:                                               ; preds = %21
  call void @llvm.lifetime.start.p0(i64 8, ptr %11) #7
  %27 = load ptr, ptr %8, align 8, !tbaa !482
  store ptr %27, ptr %11, align 8, !tbaa !482
  %28 = load ptr, ptr %11, align 8, !tbaa !482
  %29 = getelementptr inbounds nuw %struct.ImGuiSelectionRequest, ptr %28, i32 0, i32 0
  %30 = load i32, ptr %29, align 8, !tbaa !483
  %31 = icmp eq i32 %30, 1
  br i1 %31, label %32, label %47

32:                                               ; preds = %26
  %33 = load ptr, ptr %11, align 8, !tbaa !482
  %34 = getelementptr inbounds nuw %struct.ImGuiSelectionRequest, ptr %33, i32 0, i32 1
  %35 = load i8, ptr %34, align 4, !tbaa !486, !range !13, !noundef !14
  %36 = trunc i8 %35 to i1
  br i1 %36, label %37, label %44

37:                                               ; preds = %32
  %38 = load ptr, ptr %5, align 8, !tbaa !423
  %39 = load ptr, ptr %6, align 8, !tbaa !419
  %40 = load ptr, ptr %11, align 8, !tbaa !482
  %41 = getelementptr inbounds nuw %struct.ImGuiSelectionRequest, ptr %40, i32 0, i32 1
  %42 = load i8, ptr %41, align 4, !tbaa !486, !range !13, !noundef !14
  %43 = trunc i8 %42 to i1
  call void @_ZZL25ShowDemoWindowMultiSelectP19ImGuiDemoWindowDataEN16ExampleTreeFuncs21TreeSetAllInOpenNodesEP15ExampleTreeNodeP26ImGuiSelectionBasicStorageb(ptr noundef %38, ptr noundef %39, i1 noundef zeroext %43)
  br label %46

44:                                               ; preds = %32
  %45 = load ptr, ptr %6, align 8, !tbaa !419
  call void @_ZN26ImGuiSelectionBasicStorage5ClearEv(ptr noundef nonnull align 8 dereferenceable(48) %45)
  br label %46

46:                                               ; preds = %44, %37
  br label %81

47:                                               ; preds = %26
  %48 = load ptr, ptr %11, align 8, !tbaa !482
  %49 = getelementptr inbounds nuw %struct.ImGuiSelectionRequest, ptr %48, i32 0, i32 0
  %50 = load i32, ptr %49, align 8, !tbaa !483
  %51 = icmp eq i32 %50, 2
  br i1 %51, label %52, label %80

52:                                               ; preds = %47
  call void @llvm.lifetime.start.p0(i64 8, ptr %12) #7
  %53 = load ptr, ptr %11, align 8, !tbaa !482
  %54 = getelementptr inbounds nuw %struct.ImGuiSelectionRequest, ptr %53, i32 0, i32 3
  %55 = load i64, ptr %54, align 8, !tbaa !487
  %56 = inttoptr i64 %55 to ptr
  store ptr %56, ptr %12, align 8, !tbaa !423
  call void @llvm.lifetime.start.p0(i64 8, ptr %13) #7
  %57 = load ptr, ptr %11, align 8, !tbaa !482
  %58 = getelementptr inbounds nuw %struct.ImGuiSelectionRequest, ptr %57, i32 0, i32 4
  %59 = load i64, ptr %58, align 8, !tbaa !488
  %60 = inttoptr i64 %59 to ptr
  store ptr %60, ptr %13, align 8, !tbaa !423
  call void @llvm.lifetime.start.p0(i64 8, ptr %14) #7
  %61 = load ptr, ptr %12, align 8, !tbaa !423
  store ptr %61, ptr %14, align 8, !tbaa !423
  br label %62

62:                                               ; preds = %75, %52
  %63 = load ptr, ptr %14, align 8, !tbaa !423
  %64 = icmp ne ptr %63, null
  br i1 %64, label %66, label %65

65:                                               ; preds = %62
  store i32 4, ptr %10, align 4
  call void @llvm.lifetime.end.p0(i64 8, ptr %14) #7
  br label %79

66:                                               ; preds = %62
  %67 = load ptr, ptr %6, align 8, !tbaa !419
  %68 = load ptr, ptr %14, align 8, !tbaa !423
  %69 = getelementptr inbounds nuw %struct.ExampleTreeNode, ptr %68, i32 0, i32 1
  %70 = load i32, ptr %69, align 4, !tbaa !489
  %71 = load ptr, ptr %11, align 8, !tbaa !482
  %72 = getelementptr inbounds nuw %struct.ImGuiSelectionRequest, ptr %71, i32 0, i32 1
  %73 = load i8, ptr %72, align 4, !tbaa !486, !range !13, !noundef !14
  %74 = trunc i8 %73 to i1
  call void @_ZN26ImGuiSelectionBasicStorage15SetItemSelectedEjb(ptr noundef nonnull align 8 dereferenceable(48) %67, i32 noundef %70, i1 noundef zeroext %74)
  br label %75

75:                                               ; preds = %66
  %76 = load ptr, ptr %14, align 8, !tbaa !423
  %77 = load ptr, ptr %13, align 8, !tbaa !423
  %78 = call noundef ptr @_ZZL25ShowDemoWindowMultiSelectP19ImGuiDemoWindowDataEN16ExampleTreeFuncs29TreeGetNextNodeInVisibleOrderEP15ExampleTreeNodeS3_(ptr noundef %76, ptr noundef %77)
  store ptr %78, ptr %14, align 8, !tbaa !423
  br label %62, !llvm.loop !490

79:                                               ; preds = %65
  call void @llvm.lifetime.end.p0(i64 8, ptr %13) #7
  call void @llvm.lifetime.end.p0(i64 8, ptr %12) #7
  br label %80

80:                                               ; preds = %79, %47
  br label %81

81:                                               ; preds = %80, %46
  call void @llvm.lifetime.end.p0(i64 8, ptr %11) #7
  br label %82

82:                                               ; preds = %81
  %83 = load ptr, ptr %8, align 8, !tbaa !482
  %84 = getelementptr inbounds nuw %struct.ImGuiSelectionRequest, ptr %83, i32 1
  store ptr %84, ptr %8, align 8, !tbaa !482
  br label %21

85:                                               ; preds = %25
  ret void
}